; ModuleID = '49/912.c'
source_filename = "49/912.c"
target datalayout = "e-m:e-p270:32:32-p271:32:32-p272:64:64-i64:64-f80:128-n8:16:32:64-S128"
target triple = "x86_64-pc-linux-gnu"

@.str = private unnamed_addr constant [3 x i8] c"%c\00", align 1
@.str.1 = private unnamed_addr constant [2 x i8] c"\0A\00", align 1

; Function Attrs: noinline nounwind uwtable
define dso_local i32 @main() #0 {
  %1 = alloca i32, align 4
  %2 = alloca [500 x i8], align 16
  %3 = alloca [500 x i8], align 16
  %4 = alloca i32, align 4
  %5 = alloca i32, align 4
  %6 = alloca i32, align 4
  %7 = alloca i32, align 4
  store i32 0, i32* %1, align 4
  %8 = getelementptr inbounds [500 x i8], [500 x i8]* %2, i64 0, i64 0
  %9 = call i32 (i8*, ...) bitcast (i32 (...)* @gets to i32 (i8*, ...)*)(i8* %8)
  %10 = getelementptr inbounds [500 x i8], [500 x i8]* %2, i64 0, i64 0
  %11 = call i64 @strlen(i8* %10) #3
  %12 = trunc i64 %11 to i32
  store i32 %12, i32* %7, align 4
  store i32 2, i32* %4, align 4
  br label %13

13:                                               ; preds = %49, %0
  %14 = load i32, i32* %4, align 4
  %15 = load i32, i32* %7, align 4
  %16 = icmp slt i32 %14, %15
  br i1 %16, label %17, label %52

17:                                               ; preds = %13
  store i32 0, i32* %5, align 4
  br label %18

18:                                               ; preds = %45, %17
  %19 = load i32, i32* %5, align 4
  %20 = load i32, i32* %7, align 4
  %21 = load i32, i32* %4, align 4
  %22 = sub nsw i32 %20, %21
  %23 = icmp sle i32 %19, %22
  br i1 %23, label %24, label %48

24:                                               ; preds = %18
  store i32 0, i32* %6, align 4
  br label %25

25:                                               ; preds = %39, %24
  %26 = load i32, i32* %6, align 4
  %27 = load i32, i32* %4, align 4
  %28 = icmp sle i32 %26, %27
  br i1 %28, label %29, label %42

29:                                               ; preds = %25
  %30 = load i32, i32* %6, align 4
  %31 = load i32, i32* %5, align 4
  %32 = add nsw i32 %30, %31
  %33 = sext i32 %32 to i64
  %34 = getelementptr inbounds [500 x i8], [500 x i8]* %2, i64 0, i64 %33
  %35 = load i8, i8* %34, align 1
  %36 = load i32, i32* %6, align 4
  %37 = sext i32 %36 to i64
  %38 = getelementptr inbounds [500 x i8], [500 x i8]* %3, i64 0, i64 %37
  store i8 %35, i8* %38, align 1
  br label %39

39:                                               ; preds = %29
  %40 = load i32, i32* %6, align 4
  %41 = add nsw i32 %40, 1
  store i32 %41, i32* %6, align 4
  br label %25

42:                                               ; preds = %25
  %43 = getelementptr inbounds [500 x i8], [500 x i8]* %3, i64 0, i64 0
  %44 = load i32, i32* %4, align 4
  call void @isHuiwen(i8* %43, i32 %44)
  br label %45

45:                                               ; preds = %42
  %46 = load i32, i32* %5, align 4
  %47 = add nsw i32 %46, 1
  store i32 %47, i32* %5, align 4
  br label %18

48:                                               ; preds = %18
  br label %49

49:                                               ; preds = %48
  %50 = load i32, i32* %4, align 4
  %51 = add nsw i32 %50, 1
  store i32 %51, i32* %4, align 4
  br label %13

52:                                               ; preds = %13
  ret i32 0
}

declare dso_local i32 @gets(...) #1

; Function Attrs: nounwind readonly
declare dso_local i64 @strlen(i8*) #2

; Function Attrs: noinline nounwind uwtable
define dso_local void @isHuiwen(i8* %0, i32 %1) #0 {
  %3 = alloca i8*, align 8
  %4 = alloca i32, align 4
  %5 = alloca i32, align 4
  store i8* %0, i8** %3, align 8
  store i32 %1, i32* %4, align 4
  store i32 0, i32* %5, align 4
  br label %6

6:                                                ; preds = %30, %2
  %7 = load i32, i32* %5, align 4
  %8 = load i32, i32* %4, align 4
  %9 = sdiv i32 %8, 2
  %10 = icmp sle i32 %7, %9
  br i1 %10, label %11, label %33

11:                                               ; preds = %6
  %12 = load i8*, i8** %3, align 8
  %13 = load i32, i32* %5, align 4
  %14 = sext i32 %13 to i64
  %15 = getelementptr inbounds i8, i8* %12, i64 %14
  %16 = load i8, i8* %15, align 1
  %17 = sext i8 %16 to i32
  %18 = load i8*, i8** %3, align 8
  %19 = load i32, i32* %4, align 4
  %20 = sub nsw i32 %19, 1
  %21 = load i32, i32* %5, align 4
  %22 = sub nsw i32 %20, %21
  %23 = sext i32 %22 to i64
  %24 = getelementptr inbounds i8, i8* %18, i64 %23
  %25 = load i8, i8* %24, align 1
  %26 = sext i8 %25 to i32
  %27 = icmp ne i32 %17, %26
  br i1 %27, label %28, label %29

28:                                               ; preds = %11
  br label %51

29:                                               ; preds = %11
  br label %30

30:                                               ; preds = %29
  %31 = load i32, i32* %5, align 4
  %32 = add nsw i32 %31, 1
  store i32 %32, i32* %5, align 4
  br label %6

33:                                               ; preds = %6
  store i32 0, i32* %5, align 4
  br label %34

34:                                               ; preds = %46, %33
  %35 = load i32, i32* %5, align 4
  %36 = load i32, i32* %4, align 4
  %37 = icmp slt i32 %35, %36
  br i1 %37, label %38, label %49

38:                                               ; preds = %34
  %39 = load i8*, i8** %3, align 8
  %40 = load i32, i32* %5, align 4
  %41 = sext i32 %40 to i64
  %42 = getelementptr inbounds i8, i8* %39, i64 %41
  %43 = load i8, i8* %42, align 1
  %44 = sext i8 %43 to i32
  %45 = call i32 (i8*, ...) @printf(i8* getelementptr inbounds ([3 x i8], [3 x i8]* @.str, i64 0, i64 0), i32 %44)
  br label %46

46:                                               ; preds = %38
  %47 = load i32, i32* %5, align 4
  %48 = add nsw i32 %47, 1
  store i32 %48, i32* %5, align 4
  br label %34

49:                                               ; preds = %34
  %50 = call i32 (i8*, ...) @printf(i8* getelementptr inbounds ([2 x i8], [2 x i8]* @.str.1, i64 0, i64 0))
  br label %51

51:                                               ; preds = %49, %28
  ret void
}

declare dso_local i32 @printf(i8*, ...) #1


!llvm.module.flags = !{!0}
!llvm.ident = !{!1}

!0 = !{i32 1, !"wchar_size", i32 4}
!1 = !{!"clang version 10.0.0-4ubuntu1 "}
